; Function Attrs: mustprogress uwtable
define noundef i32 @_ZNK10open_spiel10backgammon15BackgammonState15PositionFromBarEii(ptr nocapture noundef nonnull readnone align 8 dereferenceable(216) %0, i32 noundef %1, i32 noundef %2) local_unnamed_addr #4 align 2 personality ptr @__gxx_personality_v0 {
  %4 = alloca %"class.std::__cxx11::basic_string", align 8
  %5 = alloca %"class.absl::debian2::AlphaNum", align 8
  %6 = alloca %"class.absl::debian2::AlphaNum", align 8
  switch i32 %1, label %_ZN4absl7debian28AlphaNumC2EPKc.exit [
    i32 0, label %7
    i32 1, label %9
  ]

7:                                                ; preds = %3
  %8 = add nsw i32 %2, -1
  br label %23

9:                                                ; preds = %3
  %10 = sub nsw i32 24, %2
  br label %23

_ZN4absl7debian28AlphaNumC2EPKc.exit:             ; preds = %3
  store ptr @.str.90, ptr %5, align 8
  %11 = getelementptr inbounds nuw i8, ptr %5, i64 8
  store i64 16, ptr %11, align 8
  %12 = getelementptr inbounds nuw i8, ptr %6, i64 16
  %13 = call noundef ptr @_ZN4absl7debian216numbers_internal15FastIntToBufferEiPc(i32 noundef %1, ptr noundef nonnull %12)
  %14 = ptrtoint ptr %13 to i64
  %15 = ptrtoint ptr %12 to i64
  %16 = sub i64 %14, %15
  store ptr %12, ptr %6, align 8
  %17 = icmp sgt i64 %16, -1
  br i1 %17, label %_ZN4absl7debian28AlphaNumC2Ei.exit, label %18

18:                                               ; preds = %_ZN4absl7debian28AlphaNumC2EPKc.exit
  call void @llvm.trap()
  unreachable

_ZN4absl7debian28AlphaNumC2Ei.exit:               ; preds = %_ZN4absl7debian28AlphaNumC2EPKc.exit
  %19 = getelementptr inbounds nuw i8, ptr %6, i64 8
  store i64 %16, ptr %19, align 8
  call void @_ZN4absl7debian26StrCatB5cxx11ERKNS0_8AlphaNumES3_(ptr dead_on_unwind nonnull writable sret(%"class.std::__cxx11::basic_string") align 8 %4, ptr noundef nonnull align 8 dereferenceable(48) %5, ptr noundef nonnull align 8 dereferenceable(48) %6)
  invoke void @_ZN10open_spiel15SpielFatalErrorERKNSt7__cxx1112basic_stringIcSt11char_traitsIcESaIcEEE(ptr noundef nonnull align 8 dereferenceable(32) %4) #29
          to label %20 unwind label %21

20:                                               ; preds = %_ZN4absl7debian28AlphaNumC2Ei.exit
  unreachable

21:                                               ; preds = %_ZN4absl7debian28AlphaNumC2Ei.exit
  %22 = landingpad { ptr, i32 }
          cleanup
  call void @_ZNSt7__cxx1112basic_stringIcSt11char_traitsIcESaIcEED1Ev(ptr noundef nonnull align 8 dereferenceable(32) %4) #30
  resume { ptr, i32 } %22

23:                                               ; preds = %9, %7
  %.0 = phi i32 [ %8, %7 ], [ %10, %9 ]
  ret i32 %.0
}